; Function Attrs: mustprogress nofree norecurse nosync nounwind willreturn memory(argmem: read) uwtable
define dso_local noundef i64 @_ZNK3net22QuicSentEntropyManager27GetLargestPacketWithEntropyEv(ptr nocapture noundef nonnull readonly align 8 dereferenceable(128) %this) local_unnamed_addr #4 align 2 {
entry:
  %map_offset_ = getelementptr inbounds i8, ptr %this, i64 88
  %0 = load i64, ptr %map_offset_, align 8
  %_M_finish.i = getelementptr inbounds i8, ptr %this, i64 56
  %_M_start.i = getelementptr inbounds i8, ptr %this, i64 24
  %_M_node.i.i = getelementptr inbounds i8, ptr %this, i64 80
  %1 = load ptr, ptr %_M_node.i.i, align 8
  %_M_node1.i.i = getelementptr inbounds i8, ptr %this, i64 48
  %2 = load ptr, ptr %_M_node1.i.i, align 8
  %sub.ptr.lhs.cast.i.i = ptrtoint ptr %1 to i64
  %sub.ptr.rhs.cast.i.i = ptrtoint ptr %2 to i64
  %sub.ptr.sub.i.i = sub i64 %sub.ptr.lhs.cast.i.i, %sub.ptr.rhs.cast.i.i
  %sub.ptr.div.i.i = ashr exact i64 %sub.ptr.sub.i.i, 3
  %tobool.i.i = icmp ne ptr %1, null
  %conv.neg.i.i = sext i1 %tobool.i.i to i64
  %sub.i.i = add nsw i64 %sub.ptr.div.i.i, %conv.neg.i.i
  %mul.i.i = shl nsw i64 %sub.i.i, 9
  %3 = load ptr, ptr %_M_finish.i, align 8
  %_M_first.i.i = getelementptr inbounds i8, ptr %this, i64 64
  %4 = load ptr, ptr %_M_first.i.i, align 8
  %sub.ptr.lhs.cast3.i.i = ptrtoint ptr %3 to i64
  %sub.ptr.rhs.cast4.i.i = ptrtoint ptr %4 to i64
  %_M_last.i.i = getelementptr inbounds i8, ptr %this, i64 40
  %5 = load ptr, ptr %_M_last.i.i, align 8
  %6 = load ptr, ptr %_M_start.i, align 8
  %sub.ptr.lhs.cast7.i.i = ptrtoint ptr %5 to i64
  %sub.ptr.rhs.cast8.i.i = ptrtoint ptr %6 to i64
  %sub.ptr.sub9.i.i = add i64 %0, -1
  %sub.ptr.sub5.i.i = add i64 %sub.ptr.sub9.i.i, %sub.ptr.lhs.cast3.i.i
  %add.i.i = sub i64 %sub.ptr.sub5.i.i, %sub.ptr.rhs.cast4.i.i
  %add10.i.i = add i64 %add.i.i, %sub.ptr.lhs.cast7.i.i
  %add = add i64 %add10.i.i, %mul.i.i
  %sub = sub i64 %add, %sub.ptr.rhs.cast8.i.i
  ret i64 %sub
}